target datalayout = "e-m:e-p270:32:32-p271:32:32-p272:64:64-i64:64-i128:128-f80:128-n8:16:32:64-S128"
target triple = "x86_64-pc-linux-gnu"

%struct._object = type { %union.anon, ptr }
%union.anon = type { i64 }
%struct.anon = type { i32, i32 }
%struct.PyMemoTable = type { i64, i64, i64, ptr }
%struct.PyMemoEntry = type { ptr, i64 }

; Function Attrs: alwaysinline nounwind uwtable
define internal void @Py_INCREF(ptr noundef %0) #4 {
  %2 = alloca ptr, align 8
  %3 = alloca i32, align 4
  %4 = alloca i32, align 4
  store ptr %0, ptr %2, align 8, !tbaa !3
  call void @llvm.lifetime.start.p0(i64 4, ptr %3) #10
  %5 = load ptr, ptr %2, align 8, !tbaa !3
  %6 = getelementptr inbounds nuw %struct._object, ptr %5, i32 0, i32 0
  %7 = getelementptr inbounds nuw %struct.anon, ptr %6, i32 0, i32 0
  %8 = load i32, ptr %7, align 8, !tbaa !63
  store i32 %8, ptr %3, align 4, !tbaa !12
  %9 = load i32, ptr %3, align 4, !tbaa !12
  %10 = icmp slt i32 %9, 0
  br i1 %10, label %11, label %12

11:                                               ; preds = %1
  store i32 1, ptr %4, align 4
  br label %18

12:                                               ; preds = %1
  %13 = load i32, ptr %3, align 4, !tbaa !12
  %14 = add i32 %13, 1
  %15 = load ptr, ptr %2, align 8, !tbaa !3
  %16 = getelementptr inbounds nuw %struct._object, ptr %15, i32 0, i32 0
  %17 = getelementptr inbounds nuw %struct.anon, ptr %16, i32 0, i32 0
  store i32 %14, ptr %17, align 8, !tbaa !63
  store i32 0, ptr %4, align 4
  br label %18

18:                                               ; preds = %12, %11
  call void @llvm.lifetime.end.p0(i64 4, ptr %3) #10
  %19 = load i32, ptr %4, align 4
  switch i32 %19, label %21 [
    i32 0, label %20
    i32 1, label %20
  ]

20:                                               ; preds = %18, %18
  ret void

21:                                               ; preds = %18
  unreachable
}

; Function Attrs: nounwind uwtable
define internal i32 @_PyMemoTable_ResizeTable(ptr noundef %0, i64 noundef %1) #0 {
  %3 = alloca i32, align 4
  %4 = alloca ptr, align 8
  %5 = alloca i64, align 8
  %6 = alloca ptr, align 8
  %7 = alloca ptr, align 8
  %8 = alloca ptr, align 8
  %9 = alloca i64, align 8
  %10 = alloca i64, align 8
  %11 = alloca i32, align 4
  store ptr %0, ptr %4, align 8, !tbaa !8
  store i64 %1, ptr %5, align 8, !tbaa !34
  call void @llvm.lifetime.start.p0(i64 8, ptr %6) #10
  store ptr null, ptr %6, align 8, !tbaa !8
  call void @llvm.lifetime.start.p0(i64 8, ptr %7) #10
  call void @llvm.lifetime.start.p0(i64 8, ptr %8) #10
  call void @llvm.lifetime.start.p0(i64 8, ptr %9) #10
  store i64 8, ptr %9, align 8, !tbaa !34
  call void @llvm.lifetime.start.p0(i64 8, ptr %10) #10
  %12 = load i64, ptr %5, align 8, !tbaa !34
  %13 = icmp ugt i64 %12, 9223372036854775807
  br i1 %13, label %14, label %16

14:                                               ; preds = %2
  %15 = call ptr @PyErr_NoMemory()
  store i32 -1, ptr %3, align 4
  store i32 1, ptr %11, align 4
  br label %97

16:                                               ; preds = %2
  br label %17

17:                                               ; preds = %21, %16
  %18 = load i64, ptr %9, align 8, !tbaa !34
  %19 = load i64, ptr %5, align 8, !tbaa !34
  %20 = icmp ult i64 %18, %19
  br i1 %20, label %21, label %24

21:                                               ; preds = %17
  %22 = load i64, ptr %9, align 8, !tbaa !34
  %23 = shl i64 %22, 1
  store i64 %23, ptr %9, align 8, !tbaa !34
  br label %17, !llvm.loop !120

24:                                               ; preds = %17
  %25 = load ptr, ptr %4, align 8, !tbaa !8
  %26 = getelementptr inbounds nuw %struct.PyMemoTable, ptr %25, i32 0, i32 3
  %27 = load ptr, ptr %26, align 8, !tbaa !71
  store ptr %27, ptr %6, align 8, !tbaa !8
  %28 = load i64, ptr %9, align 8, !tbaa !34
  %29 = icmp ugt i64 %28, 576460752303423487
  br i1 %29, label %30, label %31

30:                                               ; preds = %24
  br label %35

31:                                               ; preds = %24
  %32 = load i64, ptr %9, align 8, !tbaa !34
  %33 = mul i64 %32, 16
  %34 = call ptr @PyMem_Malloc(i64 noundef %33)
  br label %35

35:                                               ; preds = %31, %30
  %36 = phi ptr [ null, %30 ], [ %34, %31 ]
  %37 = load ptr, ptr %4, align 8, !tbaa !8
  %38 = getelementptr inbounds nuw %struct.PyMemoTable, ptr %37, i32 0, i32 3
  store ptr %36, ptr %38, align 8, !tbaa !71
  %39 = load ptr, ptr %4, align 8, !tbaa !8
  %40 = getelementptr inbounds nuw %struct.PyMemoTable, ptr %39, i32 0, i32 3
  %41 = load ptr, ptr %40, align 8, !tbaa !71
  %42 = icmp eq ptr %41, null
  br i1 %42, label %43, label %48

43:                                               ; preds = %35
  %44 = load ptr, ptr %6, align 8, !tbaa !8
  %45 = load ptr, ptr %4, align 8, !tbaa !8
  %46 = getelementptr inbounds nuw %struct.PyMemoTable, ptr %45, i32 0, i32 3
  store ptr %44, ptr %46, align 8, !tbaa !71
  %47 = call ptr @PyErr_NoMemory()
  store i32 -1, ptr %3, align 4
  store i32 1, ptr %11, align 4
  br label %97

48:                                               ; preds = %35
  %49 = load i64, ptr %9, align 8, !tbaa !34
  %50 = load ptr, ptr %4, align 8, !tbaa !8
  %51 = getelementptr inbounds nuw %struct.PyMemoTable, ptr %50, i32 0, i32 2
  store i64 %49, ptr %51, align 8, !tbaa !69
  %52 = load i64, ptr %9, align 8, !tbaa !34
  %53 = sub i64 %52, 1
  %54 = load ptr, ptr %4, align 8, !tbaa !8
  %55 = getelementptr inbounds nuw %struct.PyMemoTable, ptr %54, i32 0, i32 0
  store i64 %53, ptr %55, align 8, !tbaa !70
  %56 = load ptr, ptr %4, align 8, !tbaa !8
  %57 = getelementptr inbounds nuw %struct.PyMemoTable, ptr %56, i32 0, i32 3
  %58 = load ptr, ptr %57, align 8, !tbaa !71
  %59 = load i64, ptr %9, align 8, !tbaa !34
  %60 = mul i64 16, %59
  call void @llvm.memset.p0.i64(ptr align 8 %58, i8 0, i64 %60, i1 false)
  %61 = load ptr, ptr %4, align 8, !tbaa !8
  %62 = getelementptr inbounds nuw %struct.PyMemoTable, ptr %61, i32 0, i32 1
  %63 = load i64, ptr %62, align 8, !tbaa !67
  store i64 %63, ptr %10, align 8, !tbaa !34
  %64 = load ptr, ptr %6, align 8, !tbaa !8
  store ptr %64, ptr %7, align 8, !tbaa !8
  br label %65

65:                                               ; preds = %92, %48
  %66 = load i64, ptr %10, align 8, !tbaa !34
  %67 = icmp ugt i64 %66, 0
  br i1 %67, label %68, label %95

68:                                               ; preds = %65
  %69 = load ptr, ptr %7, align 8, !tbaa !8
  %70 = getelementptr inbounds nuw %struct.PyMemoEntry, ptr %69, i32 0, i32 0
  %71 = load ptr, ptr %70, align 8, !tbaa !87
  %72 = icmp ne ptr %71, null
  br i1 %72, label %73, label %91

73:                                               ; preds = %68
  %74 = load i64, ptr %10, align 8, !tbaa !34
  %75 = add i64 %74, -1
  store i64 %75, ptr %10, align 8, !tbaa !34
  %76 = load ptr, ptr %4, align 8, !tbaa !8
  %77 = load ptr, ptr %7, align 8, !tbaa !8
  %78 = getelementptr inbounds nuw %struct.PyMemoEntry, ptr %77, i32 0, i32 0
  %79 = load ptr, ptr %78, align 8, !tbaa !87
  %80 = call ptr @_PyMemoTable_Lookup(ptr noundef %76, ptr noundef %79)
  store ptr %80, ptr %8, align 8, !tbaa !8
  %81 = load ptr, ptr %7, align 8, !tbaa !8
  %82 = getelementptr inbounds nuw %struct.PyMemoEntry, ptr %81, i32 0, i32 0
  %83 = load ptr, ptr %82, align 8, !tbaa !87
  %84 = load ptr, ptr %8, align 8, !tbaa !8
  %85 = getelementptr inbounds nuw %struct.PyMemoEntry, ptr %84, i32 0, i32 0
  store ptr %83, ptr %85, align 8, !tbaa !87
  %86 = load ptr, ptr %7, align 8, !tbaa !8
  %87 = getelementptr inbounds nuw %struct.PyMemoEntry, ptr %86, i32 0, i32 1
  %88 = load i64, ptr %87, align 8, !tbaa !119
  %89 = load ptr, ptr %8, align 8, !tbaa !8
  %90 = getelementptr inbounds nuw %struct.PyMemoEntry, ptr %89, i32 0, i32 1
  store i64 %88, ptr %90, align 8, !tbaa !119
  br label %91

91:                                               ; preds = %73, %68
  br label %92

92:                                               ; preds = %91
  %93 = load ptr, ptr %7, align 8, !tbaa !8
  %94 = getelementptr %struct.PyMemoEntry, ptr %93, i32 1
  store ptr %94, ptr %7, align 8, !tbaa !8
  br label %65, !llvm.loop !121

95:                                               ; preds = %65
  %96 = load ptr, ptr %6, align 8, !tbaa !8
  call void @PyMem_Free(ptr noundef %96)
  store i32 0, ptr %3, align 4
  store i32 1, ptr %11, align 4
  br label %97

97:                                               ; preds = %95, %43, %14
  call void @llvm.lifetime.end.p0(i64 8, ptr %10) #10
  call void @llvm.lifetime.end.p0(i64 8, ptr %9) #10
  call void @llvm.lifetime.end.p0(i64 8, ptr %8) #10
  call void @llvm.lifetime.end.p0(i64 8, ptr %7) #10
  call void @llvm.lifetime.end.p0(i64 8, ptr %6) #10
  %98 = load i32, ptr %3, align 4
  ret i32 %98
}

; Function Attrs: inlinehint nounwind uwtable
define internal ptr @_Py_NewRef(ptr noundef %0) #3 {
  %2 = alloca ptr, align 8
  store ptr %0, ptr %2, align 8, !tbaa !3
  %3 = load ptr, ptr %2, align 8, !tbaa !3
  call void @Py_INCREF(ptr noundef %3)
  %4 = load ptr, ptr %2, align 8, !tbaa !3
  ret ptr %4
}

; Function Attrs: nounwind uwtable
define internal ptr @_PyMemoTable_Lookup(ptr noundef %0, ptr noundef %1) #0 {
  %3 = alloca ptr, align 8
  %4 = alloca ptr, align 8
  %5 = alloca ptr, align 8
  %6 = alloca i64, align 8
  %7 = alloca i64, align 8
  %8 = alloca i64, align 8
  %9 = alloca ptr, align 8
  %10 = alloca ptr, align 8
  %11 = alloca i64, align 8
  %12 = alloca i32, align 4
  store ptr %0, ptr %4, align 8, !tbaa !8
  store ptr %1, ptr %5, align 8, !tbaa !3
  call void @llvm.lifetime.start.p0(i64 8, ptr %6) #10
  call void @llvm.lifetime.start.p0(i64 8, ptr %7) #10
  call void @llvm.lifetime.start.p0(i64 8, ptr %8) #10
  %13 = load ptr, ptr %4, align 8, !tbaa !8
  %14 = getelementptr inbounds nuw %struct.PyMemoTable, ptr %13, i32 0, i32 0
  %15 = load i64, ptr %14, align 8, !tbaa !70
  store i64 %15, ptr %8, align 8, !tbaa !34
  call void @llvm.lifetime.start.p0(i64 8, ptr %9) #10
  %16 = load ptr, ptr %4, align 8, !tbaa !8
  %17 = getelementptr inbounds nuw %struct.PyMemoTable, ptr %16, i32 0, i32 3
  %18 = load ptr, ptr %17, align 8, !tbaa !71
  store ptr %18, ptr %9, align 8, !tbaa !8
  call void @llvm.lifetime.start.p0(i64 8, ptr %10) #10
  call void @llvm.lifetime.start.p0(i64 8, ptr %11) #10
  %19 = load ptr, ptr %5, align 8, !tbaa !3
  %20 = ptrtoint ptr %19 to i64
  %21 = ashr i64 %20, 3
  store i64 %21, ptr %11, align 8, !tbaa !34
  %22 = load i64, ptr %11, align 8, !tbaa !34
  %23 = load i64, ptr %8, align 8, !tbaa !34
  %24 = and i64 %22, %23
  store i64 %24, ptr %6, align 8, !tbaa !34
  %25 = load ptr, ptr %9, align 8, !tbaa !8
  %26 = load i64, ptr %6, align 8, !tbaa !34
  %27 = getelementptr %struct.PyMemoEntry, ptr %25, i64 %26
  store ptr %27, ptr %10, align 8, !tbaa !8
  %28 = load ptr, ptr %10, align 8, !tbaa !8
  %29 = getelementptr inbounds nuw %struct.PyMemoEntry, ptr %28, i32 0, i32 0
  %30 = load ptr, ptr %29, align 8, !tbaa !87
  %31 = icmp eq ptr %30, null
  br i1 %31, label %38, label %32

32:                                               ; preds = %2
  %33 = load ptr, ptr %10, align 8, !tbaa !8
  %34 = getelementptr inbounds nuw %struct.PyMemoEntry, ptr %33, i32 0, i32 0
  %35 = load ptr, ptr %34, align 8, !tbaa !87
  %36 = load ptr, ptr %5, align 8, !tbaa !3
  %37 = icmp eq ptr %35, %36
  br i1 %37, label %38, label %40

38:                                               ; preds = %32, %2
  %39 = load ptr, ptr %10, align 8, !tbaa !8
  store ptr %39, ptr %3, align 8
  store i32 1, ptr %12, align 4
  br label %71

40:                                               ; preds = %32
  %41 = load i64, ptr %11, align 8, !tbaa !34
  store i64 %41, ptr %7, align 8, !tbaa !34
  br label %42

42:                                               ; preds = %68, %40
  %43 = load i64, ptr %6, align 8, !tbaa !34
  %44 = shl i64 %43, 2
  %45 = load i64, ptr %6, align 8, !tbaa !34
  %46 = add i64 %44, %45
  %47 = load i64, ptr %7, align 8, !tbaa !34
  %48 = add i64 %46, %47
  %49 = add i64 %48, 1
  store i64 %49, ptr %6, align 8, !tbaa !34
  %50 = load ptr, ptr %9, align 8, !tbaa !8
  %51 = load i64, ptr %6, align 8, !tbaa !34
  %52 = load i64, ptr %8, align 8, !tbaa !34
  %53 = and i64 %51, %52
  %54 = getelementptr %struct.PyMemoEntry, ptr %50, i64 %53
  store ptr %54, ptr %10, align 8, !tbaa !8
  %55 = load ptr, ptr %10, align 8, !tbaa !8
  %56 = getelementptr inbounds nuw %struct.PyMemoEntry, ptr %55, i32 0, i32 0
  %57 = load ptr, ptr %56, align 8, !tbaa !87
  %58 = icmp eq ptr %57, null
  br i1 %58, label %65, label %59

59:                                               ; preds = %42
  %60 = load ptr, ptr %10, align 8, !tbaa !8
  %61 = getelementptr inbounds nuw %struct.PyMemoEntry, ptr %60, i32 0, i32 0
  %62 = load ptr, ptr %61, align 8, !tbaa !87
  %63 = load ptr, ptr %5, align 8, !tbaa !3
  %64 = icmp eq ptr %62, %63
  br i1 %64, label %65, label %67

65:                                               ; preds = %59, %42
  %66 = load ptr, ptr %10, align 8, !tbaa !8
  store ptr %66, ptr %3, align 8
  store i32 1, ptr %12, align 4
  br label %71

67:                                               ; preds = %59
  br label %68

68:                                               ; preds = %67
  %69 = load i64, ptr %7, align 8, !tbaa !34
  %70 = lshr i64 %69, 5
  store i64 %70, ptr %7, align 8, !tbaa !34
  br label %42

71:                                               ; preds = %65, %38
  call void @llvm.lifetime.end.p0(i64 8, ptr %11) #10
  call void @llvm.lifetime.end.p0(i64 8, ptr %10) #10
  call void @llvm.lifetime.end.p0(i64 8, ptr %9) #10
  call void @llvm.lifetime.end.p0(i64 8, ptr %8) #10
  call void @llvm.lifetime.end.p0(i64 8, ptr %7) #10
  call void @llvm.lifetime.end.p0(i64 8, ptr %6) #10
  %72 = load ptr, ptr %3, align 8
  ret ptr %72
}

; Function Attrs: nounwind uwtable
define internal i32 @PyMemoTable_Set(ptr noundef %0, ptr noundef %1, i64 noundef %2) #0 {
  %4 = alloca i32, align 4
  %5 = alloca ptr, align 8
  %6 = alloca ptr, align 8
  %7 = alloca i64, align 8
  %8 = alloca ptr, align 8
  %9 = alloca i32, align 4
  %10 = alloca i64, align 8
  store ptr %0, ptr %5, align 8, !tbaa !8
  store ptr %1, ptr %6, align 8, !tbaa !3
  store i64 %2, ptr %7, align 8, !tbaa !34
  call void @llvm.lifetime.start.p0(i64 8, ptr %8) #10
  %11 = load ptr, ptr %5, align 8, !tbaa !8
  %12 = load ptr, ptr %6, align 8, !tbaa !3
  %13 = call ptr @_PyMemoTable_Lookup(ptr noundef %11, ptr noundef %12)
  store ptr %13, ptr %8, align 8, !tbaa !8
  %14 = load ptr, ptr %8, align 8, !tbaa !8
  %15 = getelementptr inbounds nuw %struct.PyMemoEntry, ptr %14, i32 0, i32 0
  %16 = load ptr, ptr %15, align 8, !tbaa !87
  %17 = icmp ne ptr %16, null
  br i1 %17, label %18, label %22

18:                                               ; preds = %3
  %19 = load i64, ptr %7, align 8, !tbaa !34
  %20 = load ptr, ptr %8, align 8, !tbaa !8
  %21 = getelementptr inbounds nuw %struct.PyMemoEntry, ptr %20, i32 0, i32 1
  store i64 %19, ptr %21, align 8, !tbaa !119
  store i32 0, ptr %4, align 4
  store i32 1, ptr %9, align 4
  br label %63

22:                                               ; preds = %3
  %23 = load ptr, ptr %6, align 8, !tbaa !3
  %24 = call ptr @_Py_NewRef(ptr noundef %23)
  %25 = load ptr, ptr %8, align 8, !tbaa !8
  %26 = getelementptr inbounds nuw %struct.PyMemoEntry, ptr %25, i32 0, i32 0
  store ptr %24, ptr %26, align 8, !tbaa !87
  %27 = load i64, ptr %7, align 8, !tbaa !34
  %28 = load ptr, ptr %8, align 8, !tbaa !8
  %29 = getelementptr inbounds nuw %struct.PyMemoEntry, ptr %28, i32 0, i32 1
  store i64 %27, ptr %29, align 8, !tbaa !119
  %30 = load ptr, ptr %5, align 8, !tbaa !8
  %31 = getelementptr inbounds nuw %struct.PyMemoTable, ptr %30, i32 0, i32 1
  %32 = load i64, ptr %31, align 8, !tbaa !67
  %33 = add i64 %32, 1
  store i64 %33, ptr %31, align 8, !tbaa !67
  %34 = load ptr, ptr %5, align 8, !tbaa !8
  %35 = getelementptr inbounds nuw %struct.PyMemoTable, ptr %34, i32 0, i32 1
  %36 = load i64, ptr %35, align 8, !tbaa !67
  %37 = icmp uge i64 6148914691236517205, %36
  br i1 %37, label %38, label %49

38:                                               ; preds = %22
  %39 = load ptr, ptr %5, align 8, !tbaa !8
  %40 = getelementptr inbounds nuw %struct.PyMemoTable, ptr %39, i32 0, i32 1
  %41 = load i64, ptr %40, align 8, !tbaa !67
  %42 = mul i64 %41, 3
  %43 = load ptr, ptr %5, align 8, !tbaa !8
  %44 = getelementptr inbounds nuw %struct.PyMemoTable, ptr %43, i32 0, i32 2
  %45 = load i64, ptr %44, align 8, !tbaa !69
  %46 = mul i64 %45, 2
  %47 = icmp ult i64 %42, %46
  br i1 %47, label %48, label %49

48:                                               ; preds = %38
  store i32 0, ptr %4, align 4
  store i32 1, ptr %9, align 4
  br label %63

49:                                               ; preds = %38, %22
  call void @llvm.lifetime.start.p0(i64 8, ptr %10) #10
  %50 = load ptr, ptr %5, align 8, !tbaa !8
  %51 = getelementptr inbounds nuw %struct.PyMemoTable, ptr %50, i32 0, i32 1
  %52 = load i64, ptr %51, align 8, !tbaa !67
  %53 = icmp ugt i64 %52, 50000
  %54 = select i1 %53, i32 2, i32 4
  %55 = sext i32 %54 to i64
  %56 = load ptr, ptr %5, align 8, !tbaa !8
  %57 = getelementptr inbounds nuw %struct.PyMemoTable, ptr %56, i32 0, i32 1
  %58 = load i64, ptr %57, align 8, !tbaa !67
  %59 = mul i64 %55, %58
  store i64 %59, ptr %10, align 8, !tbaa !34
  %60 = load ptr, ptr %5, align 8, !tbaa !8
  %61 = load i64, ptr %10, align 8, !tbaa !34
  %62 = call i32 @_PyMemoTable_ResizeTable(ptr noundef %60, i64 noundef %61)
  store i32 %62, ptr %4, align 4
  store i32 1, ptr %9, align 4
  call void @llvm.lifetime.end.p0(i64 8, ptr %10) #10
  br label %63

63:                                               ; preds = %49, %48, %18
  call void @llvm.lifetime.end.p0(i64 8, ptr %8) #10
  %64 = load i32, ptr %4, align 4
  ret i32 %64
}