; Function Attrs: nounwind uwtable
define internal fastcc range(i32 -1, 1) i32 @PyMemoTable_Set(ptr noundef captures(none) %0, ptr noundef %1, i64 noundef %2) unnamed_addr #0 {
  %.val = load i64, ptr %0, align 8, !tbaa !76
  %4 = getelementptr i8, ptr %0, i64 24
  %.val18 = load ptr, ptr %4, align 8, !tbaa !77
  %5 = ptrtoint ptr %1 to i64
  %6 = ashr i64 %5, 3
  %7 = and i64 %.val, %6
  %8 = getelementptr %struct.PyMemoEntry, ptr %.val18, i64 %7
  %9 = load ptr, ptr %8, align 8, !tbaa !96
  %10 = icmp eq ptr %9, null
  %11 = icmp eq ptr %9, %1
  %or.cond.i = or i1 %10, %11
  br i1 %or.cond.i, label %_PyMemoTable_Lookup.exit, label %.preheader.i

.preheader.i:                                     ; preds = %3, %.preheader.i
  %.024.i = phi i64 [ %20, %.preheader.i ], [ %6, %3 ]
  %.023.i = phi i64 [ %14, %.preheader.i ], [ %7, %3 ]
  %12 = mul i64 %.023.i, 5
  %13 = add nsw i64 %.024.i, 1
  %14 = add i64 %13, %12
  %15 = and i64 %14, %.val
  %16 = getelementptr %struct.PyMemoEntry, ptr %.val18, i64 %15
  %17 = load ptr, ptr %16, align 8, !tbaa !96
  %18 = icmp eq ptr %17, null
  %19 = icmp eq ptr %17, %1
  %or.cond28.i = or i1 %18, %19
  %20 = lshr i64 %.024.i, 5
  br i1 %or.cond28.i, label %_PyMemoTable_Lookup.exit, label %.preheader.i

_PyMemoTable_Lookup.exit:                         ; preds = %.preheader.i, %3
  %21 = phi ptr [ %9, %3 ], [ %17, %.preheader.i ]
  %.0.i = phi ptr [ %8, %3 ], [ %16, %.preheader.i ]
  %.not = icmp eq ptr %21, null
  br i1 %.not, label %24, label %22

22:                                               ; preds = %_PyMemoTable_Lookup.exit
  %23 = getelementptr inbounds nuw i8, ptr %.0.i, i64 8
  store i64 %2, ptr %23, align 8, !tbaa !147
  br label %_PyMemoTable_ResizeTable.exit

24:                                               ; preds = %_PyMemoTable_Lookup.exit
  %25 = load i32, ptr %1, align 8, !tbaa !42
  %26 = icmp slt i32 %25, 0
  br i1 %26, label %_Py_NewRef.exit, label %27

27:                                               ; preds = %24
  %28 = add nuw i32 %25, 1
  store i32 %28, ptr %1, align 8, !tbaa !42
  br label %_Py_NewRef.exit

_Py_NewRef.exit:                                  ; preds = %24, %27
  store ptr %1, ptr %.0.i, align 8, !tbaa !96
  %29 = getelementptr inbounds nuw i8, ptr %.0.i, i64 8
  store i64 %2, ptr %29, align 8, !tbaa !147
  %30 = getelementptr inbounds nuw i8, ptr %0, i64 8
  %31 = load i64, ptr %30, align 8, !tbaa !73
  %32 = add i64 %31, 1
  store i64 %32, ptr %30, align 8, !tbaa !73
  %33 = icmp ult i64 %32, 6148914691236517206
  br i1 %33, label %34, label %40

34:                                               ; preds = %_Py_NewRef.exit
  %35 = mul nuw i64 %32, 3
  %36 = getelementptr inbounds nuw i8, ptr %0, i64 16
  %37 = load i64, ptr %36, align 8, !tbaa !75
  %38 = shl i64 %37, 1
  %39 = icmp ult i64 %35, %38
  br i1 %39, label %_PyMemoTable_ResizeTable.exit, label %40

40:                                               ; preds = %34, %_Py_NewRef.exit
  %41 = icmp ugt i64 %32, 50000
  %42 = select i1 %41, i64 1, i64 2
  %43 = shl i64 %32, %42
  %44 = icmp slt i64 %43, 0
  br i1 %44, label %45, label %.preheader.i19

45:                                               ; preds = %40
  %46 = tail call ptr @PyErr_NoMemory() #13
  br label %_PyMemoTable_ResizeTable.exit

.preheader.i19:                                   ; preds = %40, %.preheader.i19
  %.030.i = phi i64 [ %48, %.preheader.i19 ], [ 8, %40 ]
  %47 = icmp ult i64 %.030.i, %43
  %48 = shl i64 %.030.i, 1
  br i1 %47, label %.preheader.i19, label %49, !llvm.loop !148

49:                                               ; preds = %.preheader.i19
  %50 = load ptr, ptr %4, align 8, !tbaa !77
  %51 = icmp ugt i64 %.030.i, 576460752303423487
  br i1 %51, label %.thread.i, label %52

52:                                               ; preds = %49
  %53 = shl nuw nsw i64 %.030.i, 4
  %54 = tail call ptr @PyMem_Malloc(i64 noundef %53) #13
  store ptr %54, ptr %4, align 8, !tbaa !77
  %55 = icmp eq ptr %54, null
  br i1 %55, label %.thread.i, label %57

.thread.i:                                        ; preds = %52, %49
  store ptr %50, ptr %4, align 8, !tbaa !77
  %56 = tail call ptr @PyErr_NoMemory() #13
  br label %_PyMemoTable_ResizeTable.exit

57:                                               ; preds = %52
  %58 = getelementptr inbounds nuw i8, ptr %0, i64 16
  store i64 %.030.i, ptr %58, align 8, !tbaa !75
  %59 = add nsw i64 %.030.i, -1
  store i64 %59, ptr %0, align 8, !tbaa !76
  tail call void @llvm.memset.p0.i64(ptr nonnull align 8 %54, i8 0, i64 %53, i1 false)
  %60 = load i64, ptr %30, align 8, !tbaa !73
  %.not36.i = icmp eq i64 %60, 0
  br i1 %.not36.i, label %._crit_edge.i, label %.lr.ph.i

.lr.ph.i:                                         ; preds = %57, %83
  %.038.i = phi i64 [ %.1.i, %83 ], [ %60, %57 ]
  %.03237.i = phi ptr [ %84, %83 ], [ %50, %57 ]
  %61 = load ptr, ptr %.03237.i, align 8, !tbaa !96
  %.not34.i = icmp eq ptr %61, null
  br i1 %.not34.i, label %83, label %62

62:                                               ; preds = %.lr.ph.i
  %63 = add i64 %.038.i, -1
  %.val.i = load i64, ptr %0, align 8, !tbaa !76
  %.val35.i = load ptr, ptr %4, align 8, !tbaa !77
  %64 = ptrtoint ptr %61 to i64
  %65 = ashr i64 %64, 3
  %66 = and i64 %.val.i, %65
  %67 = getelementptr %struct.PyMemoEntry, ptr %.val35.i, i64 %66
  %68 = load ptr, ptr %67, align 8, !tbaa !96
  %69 = icmp eq ptr %68, null
  %70 = icmp eq ptr %68, %61
  %or.cond.i.i = or i1 %69, %70
  br i1 %or.cond.i.i, label %_PyMemoTable_Lookup.exit.i, label %.preheader.i.i

.preheader.i.i:                                   ; preds = %62, %.preheader.i.i
  %.024.i.i = phi i64 [ %79, %.preheader.i.i ], [ %65, %62 ]
  %.023.i.i = phi i64 [ %73, %.preheader.i.i ], [ %66, %62 ]
  %71 = mul i64 %.023.i.i, 5
  %72 = add nsw i64 %.024.i.i, 1
  %73 = add i64 %72, %71
  %74 = and i64 %73, %.val.i
  %75 = getelementptr %struct.PyMemoEntry, ptr %.val35.i, i64 %74
  %76 = load ptr, ptr %75, align 8, !tbaa !96
  %77 = icmp eq ptr %76, null
  %78 = icmp eq ptr %76, %61
  %or.cond28.i.i = or i1 %77, %78
  %79 = lshr i64 %.024.i.i, 5
  br i1 %or.cond28.i.i, label %_PyMemoTable_Lookup.exit.i, label %.preheader.i.i

_PyMemoTable_Lookup.exit.i:                       ; preds = %.preheader.i.i, %62
  %.0.i.i = phi ptr [ %67, %62 ], [ %75, %.preheader.i.i ]
  store ptr %61, ptr %.0.i.i, align 8, !tbaa !96
  %80 = getelementptr inbounds nuw i8, ptr %.03237.i, i64 8
  %81 = load i64, ptr %80, align 8, !tbaa !147
  %82 = getelementptr inbounds nuw i8, ptr %.0.i.i, i64 8
  store i64 %81, ptr %82, align 8, !tbaa !147
  br label %83

83:                                               ; preds = %_PyMemoTable_Lookup.exit.i, %.lr.ph.i
  %.1.i = phi i64 [ %63, %_PyMemoTable_Lookup.exit.i ], [ %.038.i, %.lr.ph.i ]
  %84 = getelementptr i8, ptr %.03237.i, i64 16
  %.not.i = icmp eq i64 %.1.i, 0
  br i1 %.not.i, label %._crit_edge.i, label %.lr.ph.i, !llvm.loop !149

._crit_edge.i:                                    ; preds = %83, %57
  tail call void @PyMem_Free(ptr noundef %50) #13
  br label %_PyMemoTable_ResizeTable.exit

_PyMemoTable_ResizeTable.exit:                    ; preds = %._crit_edge.i, %.thread.i, %45, %34, %22
  %.0 = phi i32 [ 0, %22 ], [ 0, %34 ], [ -1, %45 ], [ -1, %.thread.i ], [ 0, %._crit_edge.i ]
  ret i32 %.0
}